target datalayout = "e-m:e-p270:32:32-p271:32:32-p272:64:64-i64:64-i128:128-f80:128-n8:16:32:64-S128"
target triple = "x86_64-pc-linux-gnu"

%struct._ir_insn = type { %struct.anon, %union.anon.5 }
%struct.anon = type { %union.anon, %union.anon.4 }
%union.anon = type { i32 }
%union.anon.4 = type { i32 }
%union.anon.5 = type { %union._ir_val }
%union._ir_val = type { double }
%struct._ir_ctx = type { ptr, i32, i32, i32, i32, i32, i32, i32, i32, i32, i32, %struct._ir_insn, ptr, ptr, ptr, i32, i32, i32, ptr, ptr, ptr, ptr, ptr, i32, i32, i64, i32, i32, i32, i64, i32, i32, i32, i32, ptr, ptr, ptr, ptr, ptr, ptr, %union.anon.13, ptr, i32, i32, i32, i64, i32, i32, i32, ptr, ptr, ptr, ptr, %struct._ir_strtab, [61 x i32], [14 x i32] }
%union.anon.13 = type { ptr }
%struct._ir_strtab = type { ptr, i32, i32, i32, i32, ptr, i32, i32 }
%struct.anon.6 = type { i32, i32 }

; Function Attrs: nounwind uwtable
define internal void @ir_grow_top(ptr noundef %0) #0 {
  %2 = alloca ptr, align 8
  %3 = alloca ptr, align 8
  store ptr %0, ptr %2, align 8
  %4 = load ptr, ptr %2, align 8
  %5 = getelementptr inbounds %struct._ir_ctx, ptr %4, i32 0, i32 0
  %6 = load ptr, ptr %5, align 8
  %7 = load ptr, ptr %2, align 8
  %8 = getelementptr inbounds %struct._ir_ctx, ptr %7, i32 0, i32 4
  %9 = load i32, ptr %8, align 4
  %10 = sext i32 %9 to i64
  %11 = sub i64 0, %10
  %12 = getelementptr inbounds %struct._ir_insn, ptr %6, i64 %11
  store ptr %12, ptr %3, align 8
  %13 = load ptr, ptr %2, align 8
  %14 = getelementptr inbounds %struct._ir_ctx, ptr %13, i32 0, i32 2
  %15 = load i32, ptr %14, align 4
  %16 = icmp slt i32 %15, 4096
  br i1 %16, label %17, label %22

17:                                               ; preds = %1
  %18 = load ptr, ptr %2, align 8
  %19 = getelementptr inbounds %struct._ir_ctx, ptr %18, i32 0, i32 2
  %20 = load i32, ptr %19, align 4
  %21 = mul nsw i32 %20, 2
  store i32 %21, ptr %19, align 4
  br label %36

22:                                               ; preds = %1
  %23 = load ptr, ptr %2, align 8
  %24 = getelementptr inbounds %struct._ir_ctx, ptr %23, i32 0, i32 2
  %25 = load i32, ptr %24, align 4
  %26 = icmp slt i32 %25, 8192
  br i1 %26, label %27, label %30

27:                                               ; preds = %22
  %28 = load ptr, ptr %2, align 8
  %29 = getelementptr inbounds %struct._ir_ctx, ptr %28, i32 0, i32 2
  store i32 8192, ptr %29, align 4
  br label %35

30:                                               ; preds = %22
  %31 = load ptr, ptr %2, align 8
  %32 = getelementptr inbounds %struct._ir_ctx, ptr %31, i32 0, i32 2
  %33 = load i32, ptr %32, align 4
  %34 = add nsw i32 %33, 4096
  store i32 %34, ptr %32, align 4
  br label %35

35:                                               ; preds = %30, %27
  br label %36

36:                                               ; preds = %35, %17
  %37 = load ptr, ptr %3, align 8
  %38 = load ptr, ptr %2, align 8
  %39 = getelementptr inbounds %struct._ir_ctx, ptr %38, i32 0, i32 4
  %40 = load i32, ptr %39, align 4
  %41 = load ptr, ptr %2, align 8
  %42 = getelementptr inbounds %struct._ir_ctx, ptr %41, i32 0, i32 2
  %43 = load i32, ptr %42, align 4
  %44 = add nsw i32 %40, %43
  %45 = sext i32 %44 to i64
  %46 = mul i64 %45, 16
  %47 = call ptr @_erealloc(ptr noundef %37, i64 noundef %46) #14
  store ptr %47, ptr %3, align 8
  %48 = load ptr, ptr %3, align 8
  %49 = load ptr, ptr %2, align 8
  %50 = getelementptr inbounds %struct._ir_ctx, ptr %49, i32 0, i32 4
  %51 = load i32, ptr %50, align 4
  %52 = sext i32 %51 to i64
  %53 = getelementptr inbounds %struct._ir_insn, ptr %48, i64 %52
  %54 = load ptr, ptr %2, align 8
  %55 = getelementptr inbounds %struct._ir_ctx, ptr %54, i32 0, i32 0
  store ptr %53, ptr %55, align 8
  ret void
}

; Function Attrs: nounwind uwtable
define internal i32 @ir_next_insn(ptr noundef %0) #0 {
  %2 = alloca ptr, align 8
  %3 = alloca i32, align 4
  store ptr %0, ptr %2, align 8
  %4 = load ptr, ptr %2, align 8
  %5 = getelementptr inbounds %struct._ir_ctx, ptr %4, i32 0, i32 1
  %6 = load i32, ptr %5, align 8
  store i32 %6, ptr %3, align 4
  %7 = load i32, ptr %3, align 4
  %8 = load ptr, ptr %2, align 8
  %9 = getelementptr inbounds %struct._ir_ctx, ptr %8, i32 0, i32 2
  %10 = load i32, ptr %9, align 4
  %11 = icmp sge i32 %7, %10
  %12 = xor i1 %11, true
  %13 = xor i1 %12, true
  %14 = zext i1 %13 to i32
  %15 = sext i32 %14 to i64
  %16 = icmp ne i64 %15, 0
  br i1 %16, label %17, label %19

17:                                               ; preds = %1
  %18 = load ptr, ptr %2, align 8
  call void @ir_grow_top(ptr noundef %18)
  br label %19

19:                                               ; preds = %17, %1
  %20 = load i32, ptr %3, align 4
  %21 = add nsw i32 %20, 1
  %22 = load ptr, ptr %2, align 8
  %23 = getelementptr inbounds %struct._ir_ctx, ptr %22, i32 0, i32 1
  store i32 %21, ptr %23, align 8
  %24 = load i32, ptr %3, align 4
  ret i32 %24
}

; Function Attrs: nounwind uwtable
define hidden i32 @ir_emit(ptr noundef %0, i32 noundef %1, i32 noundef %2, i32 noundef %3, i32 noundef %4) #0 {
  %6 = alloca ptr, align 8
  %7 = alloca i32, align 4
  %8 = alloca i32, align 4
  %9 = alloca i32, align 4
  %10 = alloca i32, align 4
  %11 = alloca i32, align 4
  %12 = alloca ptr, align 8
  store ptr %0, ptr %6, align 8
  store i32 %1, ptr %7, align 4
  store i32 %2, ptr %8, align 4
  store i32 %3, ptr %9, align 4
  store i32 %4, ptr %10, align 4
  %13 = load ptr, ptr %6, align 8
  %14 = call i32 @ir_next_insn(ptr noundef %13)
  store i32 %14, ptr %11, align 4
  %15 = load ptr, ptr %6, align 8
  %16 = getelementptr inbounds %struct._ir_ctx, ptr %15, i32 0, i32 0
  %17 = load ptr, ptr %16, align 8
  %18 = load i32, ptr %11, align 4
  %19 = sext i32 %18 to i64
  %20 = getelementptr inbounds %struct._ir_insn, ptr %17, i64 %19
  store ptr %20, ptr %12, align 8
  %21 = load i32, ptr %7, align 4
  %22 = load ptr, ptr %12, align 8
  %23 = getelementptr inbounds %struct._ir_insn, ptr %22, i32 0, i32 0
  %24 = getelementptr inbounds %struct.anon, ptr %23, i32 0, i32 0
  store i32 %21, ptr %24, align 8
  %25 = load i32, ptr %8, align 4
  %26 = load ptr, ptr %12, align 8
  %27 = getelementptr inbounds %struct._ir_insn, ptr %26, i32 0, i32 0
  %28 = getelementptr inbounds %struct.anon, ptr %27, i32 0, i32 1
  store i32 %25, ptr %28, align 4
  %29 = load i32, ptr %9, align 4
  %30 = load ptr, ptr %12, align 8
  %31 = getelementptr inbounds %struct._ir_insn, ptr %30, i32 0, i32 1
  %32 = getelementptr inbounds %struct.anon.6, ptr %31, i32 0, i32 0
  store i32 %29, ptr %32, align 8
  %33 = load i32, ptr %10, align 4
  %34 = load ptr, ptr %12, align 8
  %35 = getelementptr inbounds %struct._ir_insn, ptr %34, i32 0, i32 1
  %36 = getelementptr inbounds %struct.anon.6, ptr %35, i32 0, i32 1
  store i32 %33, ptr %36, align 4
  %37 = load i32, ptr %11, align 4
  ret i32 %37
}

; Function Attrs: nounwind uwtable
define hidden i32 @ir_emit3(ptr noundef %0, i32 noundef %1, i32 noundef %2, i32 noundef %3, i32 noundef %4) #0 {
  %6 = alloca ptr, align 8
  %7 = alloca i32, align 4
  %8 = alloca i32, align 4
  %9 = alloca i32, align 4
  %10 = alloca i32, align 4
  store ptr %0, ptr %6, align 8
  store i32 %1, ptr %7, align 4
  store i32 %2, ptr %8, align 4
  store i32 %3, ptr %9, align 4
  store i32 %4, ptr %10, align 4
  %11 = load ptr, ptr %6, align 8
  %12 = load i32, ptr %7, align 4
  %13 = load i32, ptr %8, align 4
  %14 = load i32, ptr %9, align 4
  %15 = load i32, ptr %10, align 4
  %16 = call i32 @ir_emit(ptr noundef %11, i32 noundef %12, i32 noundef %13, i32 noundef %14, i32 noundef %15)
  ret i32 %16
}

; Function Attrs: nounwind uwtable
define hidden void @_ir_IJMP(ptr noundef %0, i32 noundef %1) #0 {
  %3 = alloca ptr, align 8
  %4 = alloca i32, align 4
  store ptr %0, ptr %3, align 8
  store i32 %1, ptr %4, align 4
  %5 = load ptr, ptr %3, align 8
  %6 = load ptr, ptr %3, align 8
  %7 = getelementptr inbounds %struct._ir_ctx, ptr %6, i32 0, i32 40
  %8 = load i32, ptr %7, align 8
  %9 = load i32, ptr %4, align 4
  %10 = load ptr, ptr %3, align 8
  %11 = getelementptr inbounds %struct._ir_ctx, ptr %10, i32 0, i32 0
  %12 = load ptr, ptr %11, align 8
  %13 = getelementptr inbounds %struct._ir_insn, ptr %12, i64 1
  %14 = getelementptr inbounds %struct._ir_insn, ptr %13, i32 0, i32 0
  %15 = getelementptr inbounds %struct.anon, ptr %14, i32 0, i32 1
  %16 = load i32, ptr %15, align 4
  %17 = call i32 @ir_emit3(ptr noundef %5, i32 noundef 103, i32 noundef %8, i32 noundef %9, i32 noundef %16)
  %18 = load ptr, ptr %3, align 8
  %19 = getelementptr inbounds %struct._ir_ctx, ptr %18, i32 0, i32 40
  store i32 %17, ptr %19, align 8
  %20 = load ptr, ptr %3, align 8
  %21 = getelementptr inbounds %struct._ir_ctx, ptr %20, i32 0, i32 40
  %22 = load i32, ptr %21, align 8
  %23 = load ptr, ptr %3, align 8
  %24 = getelementptr inbounds %struct._ir_ctx, ptr %23, i32 0, i32 0
  %25 = load ptr, ptr %24, align 8
  %26 = getelementptr inbounds %struct._ir_insn, ptr %25, i64 1
  %27 = getelementptr inbounds %struct._ir_insn, ptr %26, i32 0, i32 0
  %28 = getelementptr inbounds %struct.anon, ptr %27, i32 0, i32 1
  store i32 %22, ptr %28, align 4
  %29 = load ptr, ptr %3, align 8
  %30 = getelementptr inbounds %struct._ir_ctx, ptr %29, i32 0, i32 40
  store i32 0, ptr %30, align 8
  ret void
}