; Function Attrs: nounwind uwtable
define hidden void @_ir_IJMP(ptr nocapture noundef %0, i32 noundef %1) local_unnamed_addr #0 {
  %3 = getelementptr inbounds i8, ptr %0, i64 248
  %4 = load i32, ptr %3, align 8
  %5 = load ptr, ptr %0, align 8
  %6 = getelementptr inbounds i8, ptr %5, i64 20
  %7 = load i32, ptr %6, align 4
  %8 = getelementptr inbounds i8, ptr %0, i64 8
  %9 = load i32, ptr %8, align 8
  %10 = getelementptr inbounds i8, ptr %0, i64 12
  %11 = load i32, ptr %10, align 4
  %.not.i.i.i = icmp slt i32 %9, %11
  br i1 %.not.i.i.i, label %ir_emit3.exit, label %12

12:                                               ; preds = %2
  %13 = getelementptr inbounds i8, ptr %0, i64 20
  %14 = load i32, ptr %13, align 4
  %15 = icmp slt i32 %11, 4096
  %16 = shl nsw i32 %11, 1
  %17 = icmp ult i32 %11, 8192
  %18 = add nuw nsw i32 %11, 4096
  %spec.select.i.i.i.i = select i1 %17, i32 8192, i32 %18
  %.sink.i.i.i.i = select i1 %15, i32 %16, i32 %spec.select.i.i.i.i
  store i32 %.sink.i.i.i.i, ptr %10, align 4
  %19 = sext i32 %14 to i64
  %20 = sub nsw i64 0, %19
  %21 = getelementptr inbounds %struct._ir_insn, ptr %5, i64 %20
  %22 = add nsw i32 %14, %.sink.i.i.i.i
  %23 = sext i32 %22 to i64
  %24 = shl nsw i64 %23, 4
  %25 = tail call ptr @_erealloc(ptr noundef %21, i64 noundef %24) #24
  %26 = load i32, ptr %13, align 4
  %27 = sext i32 %26 to i64
  %28 = getelementptr inbounds %struct._ir_insn, ptr %25, i64 %27
  store ptr %28, ptr %0, align 8
  br label %ir_emit3.exit

ir_emit3.exit:                                    ; preds = %2, %12
  %29 = phi ptr [ %5, %2 ], [ %28, %12 ]
  %30 = add nsw i32 %9, 1
  store i32 %30, ptr %8, align 8
  %31 = sext i32 %9 to i64
  %32 = getelementptr inbounds %struct._ir_insn, ptr %29, i64 %31
  store i32 103, ptr %32, align 8
  %33 = getelementptr inbounds i8, ptr %32, i64 4
  store i32 %4, ptr %33, align 4
  %34 = getelementptr inbounds i8, ptr %32, i64 8
  store i32 %1, ptr %34, align 8
  %35 = getelementptr inbounds i8, ptr %32, i64 12
  store i32 %7, ptr %35, align 4
  %36 = load ptr, ptr %0, align 8
  %37 = getelementptr inbounds i8, ptr %36, i64 20
  store i32 %9, ptr %37, align 4
  store i32 0, ptr %3, align 8
  ret void
}